; ModuleID = '61/693.c'
source_filename = "61/693.c"
target datalayout = "e-m:e-p270:32:32-p271:32:32-p272:64:64-i64:64-f80:128-n8:16:32:64-S128"
target triple = "x86_64-pc-linux-gnu"

@.str = private unnamed_addr constant [3 x i8] c"%d\00", align 1
@.str.1 = private unnamed_addr constant [4 x i8] c"%d\0A\00", align 1

; Function Attrs: noinline nounwind uwtable
define dso_local i32 @main() #0 {
  %1 = alloca i32, align 4
  %2 = alloca [21 x i32], align 16
  %3 = alloca i32, align 4
  %4 = alloca [21 x i32], align 16
  %5 = alloca i32, align 4
  store i32 0, i32* %1, align 4
  %6 = call i32 (i8*, ...) @__isoc99_scanf(i8* getelementptr inbounds ([3 x i8], [3 x i8]* @.str, i64 0, i64 0), i32* %5)
  %7 = getelementptr inbounds [21 x i32], [21 x i32]* %4, i64 0, i64 0
  store i32 1, i32* %7, align 16
  %8 = getelementptr inbounds [21 x i32], [21 x i32]* %4, i64 0, i64 1
  store i32 1, i32* %8, align 4
  store i32 2, i32* %3, align 4
  br label %9

9:                                                ; preds = %27, %0
  %10 = load i32, i32* %3, align 4
  %11 = icmp sle i32 %10, 20
  br i1 %11, label %12, label %30

12:                                               ; preds = %9
  %13 = load i32, i32* %3, align 4
  %14 = sub nsw i32 %13, 1
  %15 = sext i32 %14 to i64
  %16 = getelementptr inbounds [21 x i32], [21 x i32]* %4, i64 0, i64 %15
  %17 = load i32, i32* %16, align 4
  %18 = load i32, i32* %3, align 4
  %19 = sub nsw i32 %18, 2
  %20 = sext i32 %19 to i64
  %21 = getelementptr inbounds [21 x i32], [21 x i32]* %4, i64 0, i64 %20
  %22 = load i32, i32* %21, align 4
  %23 = add nsw i32 %17, %22
  %24 = load i32, i32* %3, align 4
  %25 = sext i32 %24 to i64
  %26 = getelementptr inbounds [21 x i32], [21 x i32]* %4, i64 0, i64 %25
  store i32 %23, i32* %26, align 4
  br label %27

27:                                               ; preds = %12
  %28 = load i32, i32* %3, align 4
  %29 = add nsw i32 %28, 1
  store i32 %29, i32* %3, align 4
  br label %9

30:                                               ; preds = %9
  store i32 1, i32* %3, align 4
  br label %31

31:                                               ; preds = %51, %30
  %32 = load i32, i32* %3, align 4
  %33 = load i32, i32* %5, align 4
  %34 = icmp slt i32 %32, %33
  br i1 %34, label %35, label %54

35:                                               ; preds = %31
  %36 = load i32, i32* %3, align 4
  %37 = sub nsw i32 %36, 1
  %38 = sext i32 %37 to i64
  %39 = getelementptr inbounds [21 x i32], [21 x i32]* %2, i64 0, i64 %38
  %40 = call i32 (i8*, ...) @__isoc99_scanf(i8* getelementptr inbounds ([3 x i8], [3 x i8]* @.str, i64 0, i64 0), i32* %39)
  %41 = load i32, i32* %3, align 4
  %42 = sub nsw i32 %41, 1
  %43 = sext i32 %42 to i64
  %44 = getelementptr inbounds [21 x i32], [21 x i32]* %2, i64 0, i64 %43
  %45 = load i32, i32* %44, align 4
  %46 = sub nsw i32 %45, 1
  %47 = sext i32 %46 to i64
  %48 = getelementptr inbounds [21 x i32], [21 x i32]* %4, i64 0, i64 %47
  %49 = load i32, i32* %48, align 4
  %50 = call i32 (i8*, ...) @printf(i8* getelementptr inbounds ([4 x i8], [4 x i8]* @.str.1, i64 0, i64 0), i32 %49)
  br label %51

51:                                               ; preds = %35
  %52 = load i32, i32* %3, align 4
  %53 = add nsw i32 %52, 1
  store i32 %53, i32* %3, align 4
  br label %31

54:                                               ; preds = %31
  %55 = load i32, i32* %5, align 4
  %56 = sub nsw i32 %55, 1
  %57 = sext i32 %56 to i64
  %58 = getelementptr inbounds [21 x i32], [21 x i32]* %2, i64 0, i64 %57
  %59 = call i32 (i8*, ...) @__isoc99_scanf(i8* getelementptr inbounds ([3 x i8], [3 x i8]* @.str, i64 0, i64 0), i32* %58)
  %60 = load i32, i32* %5, align 4
  %61 = sub nsw i32 %60, 1
  %62 = sext i32 %61 to i64
  %63 = getelementptr inbounds [21 x i32], [21 x i32]* %2, i64 0, i64 %62
  %64 = load i32, i32* %63, align 4
  %65 = sub nsw i32 %64, 1
  %66 = sext i32 %65 to i64
  %67 = getelementptr inbounds [21 x i32], [21 x i32]* %4, i64 0, i64 %66
  %68 = load i32, i32* %67, align 4
  %69 = call i32 (i8*, ...) @printf(i8* getelementptr inbounds ([3 x i8], [3 x i8]* @.str, i64 0, i64 0), i32 %68)
  ret i32 0
}

declare dso_local i32 @__isoc99_scanf(i8*, ...) #1

declare dso_local i32 @printf(i8*, ...) #1


!llvm.module.flags = !{!0}
!llvm.ident = !{!1}

!0 = !{i32 1, !"wchar_size", i32 4}
!1 = !{!"clang version 10.0.0-4ubuntu1 "}
